target datalayout = "e-m:e-p270:32:32-p271:32:32-p272:64:64-i64:64-i128:128-f80:128-n8:16:32:64-S128"
target triple = "x86_64-pc-linux-gnu"

; Function Attrs: mustprogress nounwind uwtable
define hidden void @_ZN2cv8ximgproc10intrinsics7det_2x2EPfS2_S2_S2_S2_i(ptr noundef %0, ptr noundef %1, ptr noundef %2, ptr noundef %3, ptr noundef %4, i32 noundef %5) #7 {
  %7 = alloca ptr, align 8
  %8 = alloca ptr, align 8
  %9 = alloca ptr, align 8
  %10 = alloca ptr, align 8
  %11 = alloca ptr, align 8
  %12 = alloca i32, align 4
  %13 = alloca i32, align 4
  store ptr %0, ptr %7, align 8, !tbaa !68
  store ptr %1, ptr %8, align 8, !tbaa !68
  store ptr %2, ptr %9, align 8, !tbaa !68
  store ptr %3, ptr %10, align 8, !tbaa !68
  store ptr %4, ptr %11, align 8, !tbaa !68
  store i32 %5, ptr %12, align 4, !tbaa !10
  call void @llvm.lifetime.start.p0(i64 4, ptr %13) #3
  store i32 0, ptr %13, align 4, !tbaa !10
  br label %14

14:                                               ; preds = %46, %6
  %15 = load i32, ptr %13, align 4, !tbaa !10
  %16 = load i32, ptr %12, align 4, !tbaa !10
  %17 = icmp slt i32 %15, %16
  br i1 %17, label %18, label %49

18:                                               ; preds = %14
  %19 = load ptr, ptr %8, align 8, !tbaa !68
  %20 = load i32, ptr %13, align 4, !tbaa !10
  %21 = sext i32 %20 to i64
  %22 = getelementptr inbounds float, ptr %19, i64 %21
  %23 = load float, ptr %22, align 4, !tbaa !70
  %24 = load ptr, ptr %11, align 8, !tbaa !68
  %25 = load i32, ptr %13, align 4, !tbaa !10
  %26 = sext i32 %25 to i64
  %27 = getelementptr inbounds float, ptr %24, i64 %26
  %28 = load float, ptr %27, align 4, !tbaa !70
  %29 = load ptr, ptr %9, align 8, !tbaa !68
  %30 = load i32, ptr %13, align 4, !tbaa !10
  %31 = sext i32 %30 to i64
  %32 = getelementptr inbounds float, ptr %29, i64 %31
  %33 = load float, ptr %32, align 4, !tbaa !70
  %34 = load ptr, ptr %10, align 8, !tbaa !68
  %35 = load i32, ptr %13, align 4, !tbaa !10
  %36 = sext i32 %35 to i64
  %37 = getelementptr inbounds float, ptr %34, i64 %36
  %38 = load float, ptr %37, align 4, !tbaa !70
  %39 = fmul float %33, %38
  %40 = fneg float %39
  %41 = call float @llvm.fmuladd.f32(float %23, float %28, float %40)
  %42 = load ptr, ptr %7, align 8, !tbaa !68
  %43 = load i32, ptr %13, align 4, !tbaa !10
  %44 = sext i32 %43 to i64
  %45 = getelementptr inbounds float, ptr %42, i64 %44
  store float %41, ptr %45, align 4, !tbaa !70
  br label %46

46:                                               ; preds = %18
  %47 = load i32, ptr %13, align 4, !tbaa !10
  %48 = add nsw i32 %47, 1
  store i32 %48, ptr %13, align 4, !tbaa !10
  br label %14, !llvm.loop !83

49:                                               ; preds = %14
  call void @llvm.lifetime.end.p0(i64 4, ptr %13) #3
  ret void
}