; Function Attrs: mustprogress nofree norecurse nosync nounwind memory(argmem: readwrite) uwtable
define hidden void @_ZN2cv8ximgproc10intrinsics7det_2x2EPfS2_S2_S2_S2_i(ptr noundef writeonly captures(none) %0, ptr noundef readonly captures(none) %1, ptr noundef readonly captures(none) %2, ptr noundef readonly captures(none) %3, ptr noundef readonly captures(none) %4, i32 noundef %5) local_unnamed_addr #6 {
  %7 = icmp sgt i32 %5, 0
  br i1 %7, label %.lr.ph.preheader, label %._crit_edge

.lr.ph.preheader:                                 ; preds = %6
  %wide.trip.count = zext nneg i32 %5 to i64
  br label %.lr.ph

.lr.ph:                                           ; preds = %.lr.ph.preheader, %.lr.ph
  %indvars.iv = phi i64 [ 0, %.lr.ph.preheader ], [ %indvars.iv.next, %.lr.ph ]
  %8 = getelementptr inbounds nuw float, ptr %1, i64 %indvars.iv
  %9 = load float, ptr %8, align 4, !tbaa !51
  %10 = getelementptr inbounds nuw float, ptr %4, i64 %indvars.iv
  %11 = load float, ptr %10, align 4, !tbaa !51
  %12 = getelementptr inbounds nuw float, ptr %2, i64 %indvars.iv
  %13 = load float, ptr %12, align 4, !tbaa !51
  %14 = getelementptr inbounds nuw float, ptr %3, i64 %indvars.iv
  %15 = load float, ptr %14, align 4, !tbaa !51
  %16 = fneg float %15
  %17 = fmul float %13, %16
  %18 = tail call float @llvm.fmuladd.f32(float %9, float %11, float %17)
  %19 = getelementptr inbounds nuw float, ptr %0, i64 %indvars.iv
  store float %18, ptr %19, align 4, !tbaa !51
  %indvars.iv.next = add nuw nsw i64 %indvars.iv, 1
  %exitcond.not = icmp eq i64 %indvars.iv.next, %wide.trip.count
  br i1 %exitcond.not, label %._crit_edge, label %.lr.ph, !llvm.loop !64

._crit_edge:                                      ; preds = %.lr.ph, %6
  ret void
}